target datalayout = "e-m:e-p270:32:32-p271:32:32-p272:64:64-i64:64-i128:128-f80:128-n8:16:32:64-S128"
target triple = "x86_64-pc-linux-gnu"

%struct.Abc_Obj_t_ = type { ptr, ptr, i32, i32, %struct.Vec_Int_t_, %struct.Vec_Int_t_, %union.anon, %union.anon.0 }
%struct.Vec_Int_t_ = type { i32, i32, ptr }
%union.anon = type { ptr }
%union.anon.0 = type { ptr }
%struct.Abc_Ntk_t_ = type { i32, i32, ptr, ptr, ptr, ptr, ptr, ptr, ptr, ptr, ptr, ptr, ptr, [11 x i32], i32, i32, i32, i32, ptr, i32, ptr, ptr, i32, i32, i32, double, i32, %struct.Vec_Int_t_, ptr, ptr, ptr, ptr, ptr, float, i32, ptr, ptr, ptr, ptr, ptr, ptr, ptr, ptr, ptr, ptr, ptr, ptr, ptr, ptr, ptr, ptr, ptr, ptr, ptr, ptr, ptr, ptr }
%struct.Vec_Ptr_t_ = type { i32, i32, ptr }
%struct.MinRegMan_t_ = type { i32, i32, i32, i32, i32, i32, i32, i32, i32, i32, i32, ptr, i32, i32, i32, i32, i32, i32, i32, i32, i32, ptr, ptr, ptr, ptr, ptr, ptr, ptr, ptr, ptr, i32 }
%struct.Flow_Data_t_ = type { i16, %union.anon.1, i32 }
%union.anon.1 = type { ptr }

@pManMR = external global ptr, align 8

; Function Attrs: inlinehint nounwind uwtable
define internal ptr @Vec_PtrEntry(ptr noundef %0, i32 noundef %1) #3 {
  %3 = alloca ptr, align 8
  %4 = alloca i32, align 4
  store ptr %0, ptr %3, align 8, !tbaa !46
  store i32 %1, ptr %4, align 4, !tbaa !8
  %5 = load ptr, ptr %3, align 8, !tbaa !46
  %6 = getelementptr inbounds nuw %struct.Vec_Ptr_t_, ptr %5, i32 0, i32 2
  %7 = load ptr, ptr %6, align 8, !tbaa !32
  %8 = load i32, ptr %4, align 4, !tbaa !8
  %9 = sext i32 %8 to i64
  %10 = getelementptr inbounds ptr, ptr %7, i64 %9
  %11 = load ptr, ptr %10, align 8, !tbaa !35
  ret ptr %11
}

; Function Attrs: inlinehint nounwind uwtable
define internal i32 @Abc_ObjIsLatch(ptr noundef %0) #3 {
  %2 = alloca ptr, align 8
  store ptr %0, ptr %2, align 8, !tbaa !3
  %3 = load ptr, ptr %2, align 8, !tbaa !3
  %4 = getelementptr inbounds nuw %struct.Abc_Obj_t_, ptr %3, i32 0, i32 3
  %5 = load i32, ptr %4, align 4
  %6 = and i32 %5, 15
  %7 = icmp eq i32 %6, 8
  %8 = zext i1 %7 to i32
  ret i32 %8
}

; Function Attrs: inlinehint nounwind uwtable
define internal ptr @Vec_PtrReleaseArray(ptr noundef %0) #3 {
  %2 = alloca ptr, align 8
  %3 = alloca ptr, align 8
  store ptr %0, ptr %2, align 8, !tbaa !46
  call void @llvm.lifetime.start.p0(i64 8, ptr %3) #8
  %4 = load ptr, ptr %2, align 8, !tbaa !46
  %5 = getelementptr inbounds nuw %struct.Vec_Ptr_t_, ptr %4, i32 0, i32 2
  %6 = load ptr, ptr %5, align 8, !tbaa !32
  store ptr %6, ptr %3, align 8, !tbaa !35
  %7 = load ptr, ptr %2, align 8, !tbaa !46
  %8 = getelementptr inbounds nuw %struct.Vec_Ptr_t_, ptr %7, i32 0, i32 0
  store i32 0, ptr %8, align 8, !tbaa !48
  %9 = load ptr, ptr %2, align 8, !tbaa !46
  %10 = getelementptr inbounds nuw %struct.Vec_Ptr_t_, ptr %9, i32 0, i32 1
  store i32 0, ptr %10, align 4, !tbaa !47
  %11 = load ptr, ptr %2, align 8, !tbaa !46
  %12 = getelementptr inbounds nuw %struct.Vec_Ptr_t_, ptr %11, i32 0, i32 2
  store ptr null, ptr %12, align 8, !tbaa !32
  %13 = load ptr, ptr %3, align 8, !tbaa !35
  call void @llvm.lifetime.end.p0(i64 8, ptr %3) #8
  ret ptr %13
}

; Function Attrs: inlinehint nounwind uwtable
define internal i32 @Abc_ObjId(ptr noundef %0) #3 {
  %2 = alloca ptr, align 8
  store ptr %0, ptr %2, align 8, !tbaa !3
  %3 = load ptr, ptr %2, align 8, !tbaa !3
  %4 = getelementptr inbounds nuw %struct.Abc_Obj_t_, ptr %3, i32 0, i32 2
  %5 = load i32, ptr %4, align 8, !tbaa !52
  ret i32 %5
}

; Function Attrs: inlinehint nounwind uwtable
define internal ptr @Abc_NtkObj(ptr noundef %0, i32 noundef %1) #3 {
  %3 = alloca ptr, align 8
  %4 = alloca i32, align 4
  store ptr %0, ptr %3, align 8, !tbaa !36
  store i32 %1, ptr %4, align 4, !tbaa !8
  %5 = load ptr, ptr %3, align 8, !tbaa !36
  %6 = getelementptr inbounds nuw %struct.Abc_Ntk_t_, ptr %5, i32 0, i32 5
  %7 = load ptr, ptr %6, align 8, !tbaa !18
  %8 = load i32, ptr %4, align 4, !tbaa !8
  %9 = call ptr @Vec_PtrEntry(ptr noundef %7, i32 noundef %8)
  ret ptr %9
}

; Function Attrs: inlinehint nounwind uwtable
define internal i32 @Vec_PtrSize(ptr noundef %0) #3 {
  %2 = alloca ptr, align 8
  store ptr %0, ptr %2, align 8, !tbaa !46
  %3 = load ptr, ptr %2, align 8, !tbaa !46
  %4 = getelementptr inbounds nuw %struct.Vec_Ptr_t_, ptr %3, i32 0, i32 1
  %5 = load i32, ptr %4, align 4, !tbaa !47
  ret i32 %5
}

; Function Attrs: nounwind uwtable
define void @Abc_FlowRetime_ConstrainExactAll(ptr noundef %0) #0 {
  %2 = alloca ptr, align 8
  %3 = alloca i32, align 4
  %4 = alloca ptr, align 8
  %5 = alloca ptr, align 8
  store ptr %0, ptr %2, align 8, !tbaa !36
  call void @llvm.lifetime.start.p0(i64 4, ptr %3) #8
  call void @llvm.lifetime.start.p0(i64 8, ptr %4) #8
  call void @llvm.lifetime.start.p0(i64 8, ptr %5) #8
  store i32 0, ptr %3, align 4, !tbaa !8
  br label %6

6:                                                ; preds = %50, %1
  %7 = load i32, ptr %3, align 4, !tbaa !8
  %8 = load ptr, ptr %2, align 8, !tbaa !36
  %9 = getelementptr inbounds nuw %struct.Abc_Ntk_t_, ptr %8, i32 0, i32 5
  %10 = load ptr, ptr %9, align 8, !tbaa !18
  %11 = call i32 @Vec_PtrSize(ptr noundef %10)
  %12 = icmp slt i32 %7, %11
  br i1 %12, label %13, label %17

13:                                               ; preds = %6
  %14 = load ptr, ptr %2, align 8, !tbaa !36
  %15 = load i32, ptr %3, align 4, !tbaa !8
  %16 = call ptr @Abc_NtkObj(ptr noundef %14, i32 noundef %15)
  store ptr %16, ptr %4, align 8, !tbaa !3
  br label %17

17:                                               ; preds = %13, %6
  %18 = phi i1 [ false, %6 ], [ true, %13 ]
  br i1 %18, label %19, label %53

19:                                               ; preds = %17
  %20 = load ptr, ptr %4, align 8, !tbaa !3
  %21 = icmp eq ptr %20, null
  br i1 %21, label %22, label %23

22:                                               ; preds = %19
  br label %49

23:                                               ; preds = %19
  %24 = load ptr, ptr @pManMR, align 8, !tbaa !37
  %25 = getelementptr inbounds nuw %struct.MinRegMan_t_, ptr %24, i32 0, i32 24
  %26 = load ptr, ptr %25, align 8, !tbaa !45
  %27 = load ptr, ptr %4, align 8, !tbaa !3
  %28 = call i32 @Abc_ObjId(ptr noundef %27)
  %29 = zext i32 %28 to i64
  %30 = getelementptr inbounds nuw %struct.Vec_Ptr_t_, ptr %26, i64 %29
  %31 = call i32 @Vec_PtrSize(ptr noundef %30)
  %32 = icmp ne i32 %31, 0
  br i1 %32, label %33, label %48

33:                                               ; preds = %23
  %34 = load ptr, ptr @pManMR, align 8, !tbaa !37
  %35 = getelementptr inbounds nuw %struct.MinRegMan_t_, ptr %34, i32 0, i32 24
  %36 = load ptr, ptr %35, align 8, !tbaa !45
  %37 = load ptr, ptr %4, align 8, !tbaa !3
  %38 = call i32 @Abc_ObjId(ptr noundef %37)
  %39 = zext i32 %38 to i64
  %40 = getelementptr inbounds nuw %struct.Vec_Ptr_t_, ptr %36, i64 %39
  %41 = call ptr @Vec_PtrReleaseArray(ptr noundef %40)
  store ptr %41, ptr %5, align 8, !tbaa !35
  %42 = load ptr, ptr %5, align 8, !tbaa !35
  %43 = icmp ne ptr %42, null
  br i1 %43, label %44, label %46

44:                                               ; preds = %33
  %45 = load ptr, ptr %5, align 8, !tbaa !35
  call void @free(ptr noundef %45) #8
  store ptr null, ptr %5, align 8, !tbaa !35
  br label %47

46:                                               ; preds = %33
  br label %47

47:                                               ; preds = %46, %44
  br label %48

48:                                               ; preds = %47, %23
  br label %49

49:                                               ; preds = %48, %22
  br label %50

50:                                               ; preds = %49
  %51 = load i32, ptr %3, align 4, !tbaa !8
  %52 = add nsw i32 %51, 1
  store i32 %52, ptr %3, align 4, !tbaa !8
  br label %6, !llvm.loop !99

53:                                               ; preds = %17
  %54 = load ptr, ptr @pManMR, align 8, !tbaa !37
  %55 = getelementptr inbounds nuw %struct.MinRegMan_t_, ptr %54, i32 0, i32 15
  store i32 0, ptr %55, align 4, !tbaa !39
  store i32 0, ptr %3, align 4, !tbaa !8
  br label %56

56:                                               ; preds = %116, %53
  %57 = load i32, ptr %3, align 4, !tbaa !8
  %58 = load ptr, ptr %2, align 8, !tbaa !36
  %59 = getelementptr inbounds nuw %struct.Abc_Ntk_t_, ptr %58, i32 0, i32 5
  %60 = load ptr, ptr %59, align 8, !tbaa !18
  %61 = call i32 @Vec_PtrSize(ptr noundef %60)
  %62 = icmp slt i32 %57, %61
  br i1 %62, label %63, label %67

63:                                               ; preds = %56
  %64 = load ptr, ptr %2, align 8, !tbaa !36
  %65 = load i32, ptr %3, align 4, !tbaa !8
  %66 = call ptr @Abc_NtkObj(ptr noundef %64, i32 noundef %65)
  store ptr %66, ptr %4, align 8, !tbaa !3
  br label %67

67:                                               ; preds = %63, %56
  %68 = phi i1 [ false, %56 ], [ true, %63 ]
  br i1 %68, label %69, label %119

69:                                               ; preds = %67
  %70 = load ptr, ptr %4, align 8, !tbaa !3
  %71 = icmp eq ptr %70, null
  br i1 %71, label %72, label %73

72:                                               ; preds = %69
  br label %115

73:                                               ; preds = %69
  %74 = load ptr, ptr %4, align 8, !tbaa !3
  %75 = call i32 @Abc_ObjIsLatch(ptr noundef %74)
  %76 = icmp ne i32 %75, 0
  br i1 %76, label %114, label %77

77:                                               ; preds = %73
  %78 = load ptr, ptr @pManMR, align 8, !tbaa !37
  %79 = getelementptr inbounds nuw %struct.MinRegMan_t_, ptr %78, i32 0, i32 23
  %80 = load ptr, ptr %79, align 8, !tbaa !64
  %81 = load ptr, ptr %4, align 8, !tbaa !3
  %82 = call i32 @Abc_ObjId(ptr noundef %81)
  %83 = zext i32 %82 to i64
  %84 = getelementptr inbounds nuw %struct.Flow_Data_t_, ptr %80, i64 %83
  %85 = load i16, ptr %84, align 8
  %86 = zext i16 %85 to i32
  %87 = and i32 %86, 128
  %88 = icmp ne i32 %87, 0
  br i1 %88, label %89, label %114

89:                                               ; preds = %77
  %90 = load ptr, ptr @pManMR, align 8, !tbaa !37
  %91 = getelementptr inbounds nuw %struct.MinRegMan_t_, ptr %90, i32 0, i32 23
  %92 = load ptr, ptr %91, align 8, !tbaa !64
  %93 = load ptr, ptr %4, align 8, !tbaa !3
  %94 = call i32 @Abc_ObjId(ptr noundef %93)
  %95 = zext i32 %94 to i64
  %96 = getelementptr inbounds nuw %struct.Flow_Data_t_, ptr %92, i64 %95
  %97 = load i16, ptr %96, align 8
  %98 = zext i16 %97 to i32
  %99 = and i32 %98, 16
  %100 = icmp ne i32 %99, 0
  br i1 %100, label %114, label %101

101:                                              ; preds = %89
  %102 = load ptr, ptr @pManMR, align 8, !tbaa !37
  %103 = getelementptr inbounds nuw %struct.MinRegMan_t_, ptr %102, i32 0, i32 24
  %104 = load ptr, ptr %103, align 8, !tbaa !45
  %105 = load ptr, ptr %4, align 8, !tbaa !3
  %106 = call i32 @Abc_ObjId(ptr noundef %105)
  %107 = zext i32 %106 to i64
  %108 = getelementptr inbounds nuw %struct.Vec_Ptr_t_, ptr %104, i64 %107
  %109 = call i32 @Vec_PtrSize(ptr noundef %108)
  %110 = icmp ne i32 %109, 0
  br i1 %110, label %113, label %111

111:                                              ; preds = %101
  %112 = load ptr, ptr %4, align 8, !tbaa !3
  call void @Abc_FlowRetime_ConstrainExact(ptr noundef %112)
  br label %113

113:                                              ; preds = %111, %101
  br label %114

114:                                              ; preds = %113, %89, %77, %73
  br label %115

115:                                              ; preds = %114, %72
  br label %116

116:                                              ; preds = %115
  %117 = load i32, ptr %3, align 4, !tbaa !8
  %118 = add nsw i32 %117, 1
  store i32 %118, ptr %3, align 4, !tbaa !8
  br label %56, !llvm.loop !100

119:                                              ; preds = %67
  call void @llvm.lifetime.end.p0(i64 8, ptr %5) #8
  call void @llvm.lifetime.end.p0(i64 8, ptr %4) #8
  call void @llvm.lifetime.end.p0(i64 4, ptr %3) #8
  ret void
}