; Function Attrs: nounwind uwtable
define void @Abc_FlowRetime_ConstrainExactAll(ptr noundef readonly captures(none) %0) local_unnamed_addr #0 {
  %2 = getelementptr inbounds nuw i8, ptr %0, i64 32
  %3 = load ptr, ptr %2, align 8, !tbaa !15
  %4 = getelementptr i8, ptr %3, i64 4
  %.val3241 = load i32, ptr %4, align 4, !tbaa !42
  %5 = icmp sgt i32 %.val3241, 0
  br i1 %5, label %.lr.ph, label %.critedge.thread

.critedge.thread:                                 ; preds = %1
  %6 = load ptr, ptr @pManMR, align 8, !tbaa !35
  %7 = getelementptr inbounds nuw i8, ptr %6, i64 68
  store i32 0, ptr %7, align 4, !tbaa !37
  br label %.critedge2

.lr.ph:                                           ; preds = %1, %25
  %indvars.iv = phi i64 [ %indvars.iv.next, %25 ], [ 0, %1 ]
  %8 = phi ptr [ %26, %25 ], [ %3, %1 ]
  %9 = getelementptr i8, ptr %8, i64 8
  %.val40.val = load ptr, ptr %9, align 8, !tbaa !29
  %10 = getelementptr inbounds nuw ptr, ptr %.val40.val, i64 %indvars.iv
  %11 = load ptr, ptr %10, align 8, !tbaa !34
  %12 = icmp eq ptr %11, null
  br i1 %12, label %25, label %13

13:                                               ; preds = %.lr.ph
  %14 = load ptr, ptr @pManMR, align 8, !tbaa !35
  %15 = getelementptr inbounds nuw i8, ptr %14, i64 120
  %16 = load ptr, ptr %15, align 8, !tbaa !45
  %17 = getelementptr i8, ptr %11, i64 16
  %.val37 = load i32, ptr %17, align 8, !tbaa !46
  %18 = zext i32 %.val37 to i64
  %19 = getelementptr inbounds nuw %struct.Vec_Ptr_t_, ptr %16, i64 %18
  %20 = getelementptr i8, ptr %19, i64 4
  %.val31 = load i32, ptr %20, align 4, !tbaa !42
  %.not28 = icmp eq i32 %.val31, 0
  br i1 %.not28, label %25, label %21

21:                                               ; preds = %13
  %22 = getelementptr inbounds nuw i8, ptr %19, i64 8
  %23 = load ptr, ptr %22, align 8, !tbaa !29
  tail call void @llvm.memset.p0.i64(ptr noundef nonnull align 8 dereferenceable(16) %19, i8 0, i64 16, i1 false)
  %.not29 = icmp eq ptr %23, null
  br i1 %.not29, label %25, label %24

24:                                               ; preds = %21
  tail call void @free(ptr noundef nonnull %23) #11
  br label %25

25:                                               ; preds = %.lr.ph, %24, %21, %13
  %indvars.iv.next = add nuw nsw i64 %indvars.iv, 1
  %26 = load ptr, ptr %2, align 8, !tbaa !15
  %27 = getelementptr i8, ptr %26, i64 4
  %.val32 = load i32, ptr %27, align 4, !tbaa !42
  %28 = sext i32 %.val32 to i64
  %29 = icmp slt i64 %indvars.iv.next, %28
  br i1 %29, label %.lr.ph, label %.critedge, !llvm.loop !102

.critedge:                                        ; preds = %25
  %30 = icmp sgt i32 %.val32, 0
  %31 = load ptr, ptr @pManMR, align 8, !tbaa !35
  %32 = getelementptr inbounds nuw i8, ptr %31, i64 68
  store i32 0, ptr %32, align 4, !tbaa !37
  br i1 %30, label %.lr.ph45, label %.critedge2

.lr.ph45:                                         ; preds = %.critedge, %55
  %33 = phi ptr [ %56, %55 ], [ %26, %.critedge ]
  %indvars.iv47 = phi i64 [ %indvars.iv.next48, %55 ], [ 0, %.critedge ]
  %34 = getelementptr i8, ptr %33, i64 8
  %.val39.val = load ptr, ptr %34, align 8, !tbaa !29
  %35 = getelementptr inbounds nuw ptr, ptr %.val39.val, i64 %indvars.iv47
  %36 = load ptr, ptr %35, align 8, !tbaa !34
  %37 = icmp eq ptr %36, null
  br i1 %37, label %55, label %38

38:                                               ; preds = %.lr.ph45
  %39 = getelementptr i8, ptr %36, i64 20
  %.val38 = load i32, ptr %39, align 4
  %40 = and i32 %.val38, 15
  %.not = icmp eq i32 %40, 8
  br i1 %.not, label %55, label %41

41:                                               ; preds = %38
  %42 = load ptr, ptr @pManMR, align 8, !tbaa !35
  %43 = getelementptr inbounds nuw i8, ptr %42, i64 112
  %44 = load ptr, ptr %43, align 8, !tbaa !67
  %45 = getelementptr i8, ptr %36, i64 16
  %.val35 = load i32, ptr %45, align 8, !tbaa !46
  %46 = zext i32 %.val35 to i64
  %47 = getelementptr inbounds nuw %struct.Flow_Data_t_, ptr %44, i64 %46
  %48 = load i16, ptr %47, align 8
  %49 = and i16 %48, 144
  %or.cond = icmp eq i16 %49, 128
  br i1 %or.cond, label %50, label %55

50:                                               ; preds = %41
  %51 = getelementptr inbounds nuw i8, ptr %42, i64 120
  %52 = load ptr, ptr %51, align 8, !tbaa !45
  %53 = getelementptr %struct.Vec_Ptr_t_, ptr %52, i64 %46, i32 1
  %.val = load i32, ptr %53, align 4, !tbaa !42
  %.not27 = icmp eq i32 %.val, 0
  br i1 %.not27, label %54, label %55

54:                                               ; preds = %50
  tail call void @Abc_FlowRetime_ConstrainExact(ptr noundef nonnull %36)
  %.pre = load ptr, ptr %2, align 8, !tbaa !15
  br label %55

55:                                               ; preds = %.lr.ph45, %50, %54, %41, %38
  %56 = phi ptr [ %33, %.lr.ph45 ], [ %33, %50 ], [ %.pre, %54 ], [ %33, %41 ], [ %33, %38 ]
  %indvars.iv.next48 = add nuw nsw i64 %indvars.iv47, 1
  %57 = getelementptr i8, ptr %56, i64 4
  %.val30 = load i32, ptr %57, align 4, !tbaa !42
  %58 = sext i32 %.val30 to i64
  %59 = icmp slt i64 %indvars.iv.next48, %58
  br i1 %59, label %.lr.ph45, label %.critedge2, !llvm.loop !103

.critedge2:                                       ; preds = %55, %.critedge.thread, %.critedge
  ret void
}